target datalayout = "e-m:e-p270:32:32-p271:32:32-p272:64:64-i64:64-i128:128-f80:128-n8:16:32:64-S128"
target triple = "x86_64-pc-linux-gnu"

@_ZN7TypeInt3INTE = external global ptr, align 8
@_ZN7TypePtr7NOTNULLE = external global ptr, align 8

; Function Attrs: mustprogress nounwind uwtable
define hidden noundef ptr @_ZN11OptoRuntime28digestBase_implCompress_TypeEb(i1 noundef zeroext %0) #1 align 2 {
  %2 = alloca i8, align 1
  %3 = alloca i32, align 4
  %4 = alloca i32, align 4
  %5 = alloca ptr, align 8
  %6 = alloca i32, align 4
  %7 = alloca ptr, align 8
  %8 = alloca ptr, align 8
  %9 = zext i1 %0 to i8
  store i8 %9, ptr %2, align 1
  %10 = load i8, ptr %2, align 1
  %11 = trunc i8 %10 to i1
  %12 = select i1 %11, i32 3, i32 2
  store i32 %12, ptr %3, align 4
  %13 = load i32, ptr %3, align 4
  store i32 %13, ptr %4, align 4
  %14 = load i32, ptr %4, align 4
  %15 = call noundef ptr @_ZN9TypeTuple6fieldsEj(i32 noundef %14)
  store ptr %15, ptr %5, align 8
  store i32 5, ptr %6, align 4
  %16 = load ptr, ptr @_ZN7TypePtr7NOTNULLE, align 8
  %17 = load ptr, ptr %5, align 8
  %18 = load i32, ptr %6, align 4
  %19 = add nsw i32 %18, 1
  store i32 %19, ptr %6, align 4
  %20 = sext i32 %18 to i64
  %21 = getelementptr inbounds ptr, ptr %17, i64 %20
  store ptr %16, ptr %21, align 8
  %22 = load ptr, ptr @_ZN7TypePtr7NOTNULLE, align 8
  %23 = load ptr, ptr %5, align 8
  %24 = load i32, ptr %6, align 4
  %25 = add nsw i32 %24, 1
  store i32 %25, ptr %6, align 4
  %26 = sext i32 %24 to i64
  %27 = getelementptr inbounds ptr, ptr %23, i64 %26
  store ptr %22, ptr %27, align 8
  %28 = load i8, ptr %2, align 1
  %29 = trunc i8 %28 to i1
  br i1 %29, label %30, label %37

30:                                               ; preds = %1
  %31 = load ptr, ptr @_ZN7TypeInt3INTE, align 8
  %32 = load ptr, ptr %5, align 8
  %33 = load i32, ptr %6, align 4
  %34 = add nsw i32 %33, 1
  store i32 %34, ptr %6, align 4
  %35 = sext i32 %33 to i64
  %36 = getelementptr inbounds ptr, ptr %32, i64 %35
  store ptr %31, ptr %36, align 8
  br label %37

37:                                               ; preds = %30, %1
  %38 = load i32, ptr %4, align 4
  %39 = add nsw i32 5, %38
  %40 = load ptr, ptr %5, align 8
  %41 = call noundef ptr @_ZN9TypeTuple4makeEjPPK4Type(i32 noundef %39, ptr noundef %40)
  store ptr %41, ptr %7, align 8
  %42 = call noundef ptr @_ZN9TypeTuple6fieldsEj(i32 noundef 1)
  store ptr %42, ptr %5, align 8
  %43 = load ptr, ptr %5, align 8
  %44 = getelementptr inbounds ptr, ptr %43, i64 5
  store ptr null, ptr %44, align 8
  %45 = load ptr, ptr %5, align 8
  %46 = call noundef ptr @_ZN9TypeTuple4makeEjPPK4Type(i32 noundef 5, ptr noundef %45)
  store ptr %46, ptr %8, align 8
  %47 = load ptr, ptr %7, align 8
  %48 = load ptr, ptr %8, align 8
  %49 = call noundef ptr @_ZN8TypeFunc4makeEPK9TypeTupleS2_(ptr noundef %47, ptr noundef %48)
  ret ptr %49
}