; Function Attrs: mustprogress nounwind uwtable
define hidden noundef ptr @_ZN11OptoRuntime28digestBase_implCompress_TypeEb(i1 noundef zeroext %0) local_unnamed_addr #0 align 2 {
  %2 = select i1 %0, i32 3, i32 2
  %3 = tail call noundef ptr @_ZN9TypeTuple6fieldsEj(i32 noundef %2) #12
  %4 = load ptr, ptr @_ZN7TypePtr7NOTNULLE, align 8
  %5 = getelementptr inbounds i8, ptr %3, i64 40
  store ptr %4, ptr %5, align 8
  %6 = getelementptr inbounds i8, ptr %3, i64 48
  store ptr %4, ptr %6, align 8
  br i1 %0, label %7, label %10

7:                                                ; preds = %1
  %8 = load ptr, ptr @_ZN7TypeInt3INTE, align 8
  %9 = getelementptr inbounds i8, ptr %3, i64 56
  store ptr %8, ptr %9, align 8
  br label %10

10:                                               ; preds = %7, %1
  %11 = add nuw nsw i32 %2, 5
  %12 = tail call noundef ptr @_ZN9TypeTuple4makeEjPPK4Type(i32 noundef %11, ptr noundef nonnull %3) #12
  %13 = tail call noundef ptr @_ZN9TypeTuple6fieldsEj(i32 noundef 1) #12
  %14 = getelementptr inbounds i8, ptr %13, i64 40
  store ptr null, ptr %14, align 8
  %15 = tail call noundef ptr @_ZN9TypeTuple4makeEjPPK4Type(i32 noundef 5, ptr noundef %13) #12
  %16 = tail call noundef ptr @_ZN8TypeFunc4makeEPK9TypeTupleS2_(ptr noundef %12, ptr noundef %15) #12
  ret ptr %16
}